target datalayout = "e-m:e-p270:32:32-p271:32:32-p272:64:64-i64:64-i128:128-f80:128-n8:16:32:64-S128"
target triple = "x86_64-pc-linux-gnu"

%struct.crypto_ex_data_st = type { ptr }
%struct.ssl_st = type { i32, i16, i16, ptr, ptr, ptr, ptr, ptr, i32, i32, ptr, ptr, i32, i32, ptr, ptr, ptr, ptr, ptr, ptr, ptr, ptr, i32, i32, [32 x i8], ptr, ptr, ptr, ptr, ptr, ptr, ptr, i64, %struct.crypto_ex_data_st, ptr, i32, i32, i32, i32, i16, ptr, i32, i64, ptr, ptr, ptr, ptr, ptr, ptr, i32, i32, ptr, ptr, i8, i8, i32 }

@.str = private unnamed_addr constant [117 x i8] c"generated/home/dtcxzyw/WorkSpace/Projects/compilers/llvm-opt-benchmark/bench/libquic/libquic/boringssl/ssl/ssl_lib.c\00", align 1

; Function Attrs: nounwind uwtable
define hidden i32 @ssl_init_wbio_buffer(ptr noundef %0, i32 noundef %1) #0 {
  %3 = alloca i32, align 4
  %4 = alloca ptr, align 8
  %5 = alloca i32, align 4
  %6 = alloca ptr, align 8
  %7 = alloca i32, align 4
  store ptr %0, ptr %4, align 8, !tbaa !80
  store i32 %1, ptr %5, align 4, !tbaa !61
  call void @llvm.lifetime.start.p0(i64 8, ptr %6) #8
  %8 = load ptr, ptr %4, align 8, !tbaa !80
  %9 = getelementptr inbounds nuw %struct.ssl_st, ptr %8, i32 0, i32 6
  %10 = load ptr, ptr %9, align 8, !tbaa !127
  %11 = icmp eq ptr %10, null
  br i1 %11, label %12, label %22

12:                                               ; preds = %2
  %13 = call ptr @BIO_f_buffer()
  %14 = call ptr @BIO_new(ptr noundef %13)
  store ptr %14, ptr %6, align 8, !tbaa !143
  %15 = load ptr, ptr %6, align 8, !tbaa !143
  %16 = icmp eq ptr %15, null
  br i1 %16, label %17, label %18

17:                                               ; preds = %12
  store i32 0, ptr %3, align 4
  store i32 1, ptr %7, align 4
  br label %79

18:                                               ; preds = %12
  %19 = load ptr, ptr %6, align 8, !tbaa !143
  %20 = load ptr, ptr %4, align 8, !tbaa !80
  %21 = getelementptr inbounds nuw %struct.ssl_st, ptr %20, i32 0, i32 6
  store ptr %19, ptr %21, align 8, !tbaa !127
  br label %41

22:                                               ; preds = %2
  %23 = load ptr, ptr %4, align 8, !tbaa !80
  %24 = getelementptr inbounds nuw %struct.ssl_st, ptr %23, i32 0, i32 6
  %25 = load ptr, ptr %24, align 8, !tbaa !127
  store ptr %25, ptr %6, align 8, !tbaa !143
  %26 = load ptr, ptr %4, align 8, !tbaa !80
  %27 = getelementptr inbounds nuw %struct.ssl_st, ptr %26, i32 0, i32 6
  %28 = load ptr, ptr %27, align 8, !tbaa !127
  %29 = load ptr, ptr %4, align 8, !tbaa !80
  %30 = getelementptr inbounds nuw %struct.ssl_st, ptr %29, i32 0, i32 5
  %31 = load ptr, ptr %30, align 8, !tbaa !128
  %32 = icmp eq ptr %28, %31
  br i1 %32, label %33, label %40

33:                                               ; preds = %22
  %34 = load ptr, ptr %4, align 8, !tbaa !80
  %35 = getelementptr inbounds nuw %struct.ssl_st, ptr %34, i32 0, i32 5
  %36 = load ptr, ptr %35, align 8, !tbaa !128
  %37 = call ptr @BIO_pop(ptr noundef %36)
  %38 = load ptr, ptr %4, align 8, !tbaa !80
  %39 = getelementptr inbounds nuw %struct.ssl_st, ptr %38, i32 0, i32 5
  store ptr %37, ptr %39, align 8, !tbaa !128
  br label %40

40:                                               ; preds = %33, %22
  br label %41

41:                                               ; preds = %40, %18
  %42 = load ptr, ptr %6, align 8, !tbaa !143
  %43 = call i32 @BIO_reset(ptr noundef %42)
  %44 = load ptr, ptr %6, align 8, !tbaa !143
  %45 = call i32 @BIO_set_read_buffer_size(ptr noundef %44, i32 noundef 1)
  %46 = icmp ne i32 %45, 0
  br i1 %46, label %48, label %47

47:                                               ; preds = %41
  call void @ERR_put_error(i32 noundef 16, i32 noundef 0, i32 noundef 7, ptr noundef @.str, i32 noundef 1905)
  store i32 0, ptr %3, align 4
  store i32 1, ptr %7, align 4
  br label %79

48:                                               ; preds = %41
  %49 = load i32, ptr %5, align 4, !tbaa !61
  %50 = icmp ne i32 %49, 0
  br i1 %50, label %51, label %66

51:                                               ; preds = %48
  %52 = load ptr, ptr %4, align 8, !tbaa !80
  %53 = getelementptr inbounds nuw %struct.ssl_st, ptr %52, i32 0, i32 5
  %54 = load ptr, ptr %53, align 8, !tbaa !128
  %55 = load ptr, ptr %6, align 8, !tbaa !143
  %56 = icmp ne ptr %54, %55
  br i1 %56, label %57, label %65

57:                                               ; preds = %51
  %58 = load ptr, ptr %6, align 8, !tbaa !143
  %59 = load ptr, ptr %4, align 8, !tbaa !80
  %60 = getelementptr inbounds nuw %struct.ssl_st, ptr %59, i32 0, i32 5
  %61 = load ptr, ptr %60, align 8, !tbaa !128
  %62 = call ptr @BIO_push(ptr noundef %58, ptr noundef %61)
  %63 = load ptr, ptr %4, align 8, !tbaa !80
  %64 = getelementptr inbounds nuw %struct.ssl_st, ptr %63, i32 0, i32 5
  store ptr %62, ptr %64, align 8, !tbaa !128
  br label %65

65:                                               ; preds = %57, %51
  br label %78

66:                                               ; preds = %48
  %67 = load ptr, ptr %4, align 8, !tbaa !80
  %68 = getelementptr inbounds nuw %struct.ssl_st, ptr %67, i32 0, i32 5
  %69 = load ptr, ptr %68, align 8, !tbaa !128
  %70 = load ptr, ptr %6, align 8, !tbaa !143
  %71 = icmp eq ptr %69, %70
  br i1 %71, label %72, label %77

72:                                               ; preds = %66
  %73 = load ptr, ptr %6, align 8, !tbaa !143
  %74 = call ptr @BIO_pop(ptr noundef %73)
  %75 = load ptr, ptr %4, align 8, !tbaa !80
  %76 = getelementptr inbounds nuw %struct.ssl_st, ptr %75, i32 0, i32 5
  store ptr %74, ptr %76, align 8, !tbaa !128
  br label %77

77:                                               ; preds = %72, %66
  br label %78

78:                                               ; preds = %77, %65
  store i32 1, ptr %3, align 4
  store i32 1, ptr %7, align 4
  br label %79

79:                                               ; preds = %78, %47, %17
  call void @llvm.lifetime.end.p0(i64 8, ptr %6) #8
  %80 = load i32, ptr %3, align 4
  ret i32 %80
}