; Function Attrs: nounwind uwtable
define hidden range(i32 0, 2) i32 @ssl_init_wbio_buffer(ptr noundef captures(none) %0, i32 noundef %1) local_unnamed_addr #0 {
  %3 = getelementptr inbounds nuw i8, ptr %0, i64 32
  %4 = load ptr, ptr %3, align 8, !tbaa !116
  %5 = icmp eq ptr %4, null
  br i1 %5, label %6, label %11

6:                                                ; preds = %2
  %7 = tail call ptr @BIO_f_buffer() #21
  %8 = tail call ptr @BIO_new(ptr noundef %7) #21
  %9 = icmp eq ptr %8, null
  br i1 %9, label %31, label %10

10:                                               ; preds = %6
  store ptr %8, ptr %3, align 8, !tbaa !116
  br label %17

11:                                               ; preds = %2
  %12 = getelementptr inbounds nuw i8, ptr %0, i64 24
  %13 = load ptr, ptr %12, align 8, !tbaa !117
  %14 = icmp eq ptr %4, %13
  br i1 %14, label %15, label %17

15:                                               ; preds = %11
  %16 = tail call ptr @BIO_pop(ptr noundef %13) #21
  store ptr %16, ptr %12, align 8, !tbaa !117
  br label %17

17:                                               ; preds = %11, %15, %10
  %.0 = phi ptr [ %8, %10 ], [ %4, %15 ], [ %4, %11 ]
  %18 = tail call i32 @BIO_reset(ptr noundef nonnull %.0) #21
  %19 = tail call i32 @BIO_set_read_buffer_size(ptr noundef nonnull %.0, i32 noundef 1) #21
  %.not = icmp eq i32 %19, 0
  br i1 %.not, label %20, label %21

20:                                               ; preds = %17
  tail call void @ERR_put_error(i32 noundef 16, i32 noundef 0, i32 noundef 7, ptr noundef nonnull @.str, i32 noundef 1905) #21
  br label %31

21:                                               ; preds = %17
  %.not26 = icmp eq i32 %1, 0
  %22 = getelementptr inbounds nuw i8, ptr %0, i64 24
  %23 = load ptr, ptr %22, align 8, !tbaa !117
  %24 = icmp eq ptr %23, %.0
  br i1 %.not26, label %28, label %25

25:                                               ; preds = %21
  br i1 %24, label %31, label %26

26:                                               ; preds = %25
  %27 = tail call ptr @BIO_push(ptr noundef nonnull %.0, ptr noundef %23) #21
  store ptr %27, ptr %22, align 8, !tbaa !117
  br label %31

28:                                               ; preds = %21
  br i1 %24, label %29, label %31

29:                                               ; preds = %28
  %30 = tail call ptr @BIO_pop(ptr noundef nonnull %.0) #21
  store ptr %30, ptr %22, align 8, !tbaa !117
  br label %31

31:                                               ; preds = %26, %25, %29, %28, %6, %20
  %.021 = phi i32 [ 0, %20 ], [ 0, %6 ], [ 1, %28 ], [ 1, %29 ], [ 1, %25 ], [ 1, %26 ]
  ret i32 %.021
}